target datalayout = "e-m:e-p270:32:32-p271:32:32-p272:64:64-i64:64-i128:128-f80:128-n8:16:32:64-S128"
target triple = "x86_64-pc-linux-gnu"

%struct.OnigEncodingTypeST = type { ptr, ptr, i32, i32, ptr, ptr, ptr, ptr, ptr, ptr, ptr, ptr, ptr, ptr, ptr, ptr, ptr, i32, i32 }

; Function Attrs: nounwind sspstrong uwtable
define dso_local i32 @onig_scan_unsigned_number(ptr noundef %0, ptr noundef %1, ptr noundef %2) #0 {
  %4 = alloca i32, align 4
  %5 = alloca ptr, align 8
  %6 = alloca ptr, align 8
  %7 = alloca ptr, align 8
  %8 = alloca i32, align 4
  %9 = alloca i32, align 4
  %10 = alloca i32, align 4
  %11 = alloca ptr, align 8
  %12 = alloca ptr, align 8
  %13 = alloca i32, align 4
  store ptr %0, ptr %5, align 8, !tbaa !77
  store ptr %1, ptr %6, align 8, !tbaa !7
  store ptr %2, ptr %7, align 8, !tbaa !79
  call void @llvm.lifetime.start.p0(i64 4, ptr %8) #13
  call void @llvm.lifetime.start.p0(i64 4, ptr %9) #13
  call void @llvm.lifetime.start.p0(i64 4, ptr %10) #13
  call void @llvm.lifetime.start.p0(i64 8, ptr %11) #13
  %14 = load ptr, ptr %5, align 8, !tbaa !77
  %15 = load ptr, ptr %14, align 8, !tbaa !7
  store ptr %15, ptr %11, align 8, !tbaa !7
  call void @llvm.lifetime.start.p0(i64 8, ptr %12) #13
  store ptr null, ptr %12, align 8, !tbaa !7
  store i32 0, ptr %8, align 4, !tbaa !13
  br label %16

16:                                               ; preds = %99, %3
  %17 = load ptr, ptr %11, align 8, !tbaa !7
  %18 = load ptr, ptr %6, align 8, !tbaa !7
  %19 = icmp ult ptr %17, %18
  %20 = select i1 %19, i32 0, i32 1
  %21 = icmp ne i32 %20, 0
  %22 = xor i1 %21, true
  br i1 %22, label %23, label %100

23:                                               ; preds = %16
  br label %24

24:                                               ; preds = %23
  %25 = load ptr, ptr %7, align 8, !tbaa !79
  %26 = getelementptr inbounds nuw %struct.OnigEncodingTypeST, ptr %25, i32 0, i32 2
  %27 = load i32, ptr %26, align 8, !tbaa !80
  %28 = icmp eq i32 %27, 1
  br i1 %28, label %29, label %33

29:                                               ; preds = %24
  %30 = load ptr, ptr %11, align 8, !tbaa !7
  %31 = load i8, ptr %30, align 1, !tbaa !17
  %32 = zext i8 %31 to i32
  br label %41

33:                                               ; preds = %24
  %34 = load ptr, ptr %7, align 8, !tbaa !79
  %35 = getelementptr inbounds nuw %struct.OnigEncodingTypeST, ptr %34, i32 0, i32 5
  %36 = load ptr, ptr %35, align 8, !tbaa !82
  %37 = load ptr, ptr %11, align 8, !tbaa !7
  %38 = load ptr, ptr %6, align 8, !tbaa !7
  %39 = load ptr, ptr %7, align 8, !tbaa !79
  %40 = call i32 %36(ptr noundef %37, ptr noundef %38, ptr noundef %39)
  br label %41

41:                                               ; preds = %33, %29
  %42 = phi i32 [ %32, %29 ], [ %40, %33 ]
  store i32 %42, ptr %10, align 4, !tbaa !13
  %43 = load ptr, ptr %11, align 8, !tbaa !7
  store ptr %43, ptr %12, align 8, !tbaa !7
  %44 = load ptr, ptr %7, align 8, !tbaa !79
  %45 = getelementptr inbounds nuw %struct.OnigEncodingTypeST, ptr %44, i32 0, i32 2
  %46 = load i32, ptr %45, align 8, !tbaa !80
  %47 = load ptr, ptr %7, align 8, !tbaa !79
  %48 = getelementptr inbounds nuw %struct.OnigEncodingTypeST, ptr %47, i32 0, i32 3
  %49 = load i32, ptr %48, align 4, !tbaa !83
  %50 = icmp eq i32 %46, %49
  br i1 %50, label %51, label %62

51:                                               ; preds = %41
  %52 = load ptr, ptr %11, align 8, !tbaa !7
  %53 = load ptr, ptr %6, align 8, !tbaa !7
  %54 = icmp ult ptr %52, %53
  br i1 %54, label %55, label %59

55:                                               ; preds = %51
  %56 = load ptr, ptr %7, align 8, !tbaa !79
  %57 = getelementptr inbounds nuw %struct.OnigEncodingTypeST, ptr %56, i32 0, i32 3
  %58 = load i32, ptr %57, align 4, !tbaa !83
  br label %60

59:                                               ; preds = %51
  br label %60

60:                                               ; preds = %59, %55
  %61 = phi i32 [ %58, %55 ], [ 0, %59 ]
  br label %67

62:                                               ; preds = %41
  %63 = load ptr, ptr %11, align 8, !tbaa !7
  %64 = load ptr, ptr %6, align 8, !tbaa !7
  %65 = load ptr, ptr %7, align 8, !tbaa !79
  %66 = call i32 @onigenc_mbclen(ptr noundef %63, ptr noundef %64, ptr noundef %65)
  br label %67

67:                                               ; preds = %62, %60
  %68 = phi i32 [ %61, %60 ], [ %66, %62 ]
  %69 = load ptr, ptr %11, align 8, !tbaa !7
  %70 = sext i32 %68 to i64
  %71 = getelementptr i8, ptr %69, i64 %70
  store ptr %71, ptr %11, align 8, !tbaa !7
  br label %72

72:                                               ; preds = %67
  br label %73

73:                                               ; preds = %72
  %74 = load ptr, ptr %7, align 8, !tbaa !79
  %75 = getelementptr inbounds nuw %struct.OnigEncodingTypeST, ptr %74, i32 0, i32 12
  %76 = load ptr, ptr %75, align 8, !tbaa !84
  %77 = load i32, ptr %10, align 4, !tbaa !13
  %78 = load ptr, ptr %7, align 8, !tbaa !79
  %79 = call i32 %76(i32 noundef %77, i32 noundef 4, ptr noundef %78)
  %80 = icmp ne i32 %79, 0
  br i1 %80, label %81, label %97

81:                                               ; preds = %73
  %82 = load i32, ptr %10, align 4, !tbaa !13
  %83 = sub i32 %82, 48
  store i32 %83, ptr %9, align 4, !tbaa !13
  %84 = load i32, ptr %9, align 4, !tbaa !13
  %85 = zext i32 %84 to i64
  %86 = sub i64 2147483647, %85
  %87 = udiv i64 %86, 10
  %88 = load i32, ptr %8, align 4, !tbaa !13
  %89 = zext i32 %88 to i64
  %90 = icmp ult i64 %87, %89
  br i1 %90, label %91, label %92

91:                                               ; preds = %81
  store i32 -1, ptr %4, align 4
  store i32 1, ptr %13, align 4
  br label %104

92:                                               ; preds = %81
  %93 = load i32, ptr %8, align 4, !tbaa !13
  %94 = mul i32 %93, 10
  %95 = load i32, ptr %9, align 4, !tbaa !13
  %96 = add i32 %94, %95
  store i32 %96, ptr %8, align 4, !tbaa !13
  br label %99

97:                                               ; preds = %73
  %98 = load ptr, ptr %12, align 8, !tbaa !7
  store ptr %98, ptr %11, align 8, !tbaa !7
  br label %100

99:                                               ; preds = %92
  br label %16, !llvm.loop !85

100:                                              ; preds = %97, %16
  %101 = load ptr, ptr %11, align 8, !tbaa !7
  %102 = load ptr, ptr %5, align 8, !tbaa !77
  store ptr %101, ptr %102, align 8, !tbaa !7
  %103 = load i32, ptr %8, align 4, !tbaa !13
  store i32 %103, ptr %4, align 4
  store i32 1, ptr %13, align 4
  br label %104

104:                                              ; preds = %100, %91
  call void @llvm.lifetime.end.p0(i64 8, ptr %12) #13
  call void @llvm.lifetime.end.p0(i64 8, ptr %11) #13
  call void @llvm.lifetime.end.p0(i64 4, ptr %10) #13
  call void @llvm.lifetime.end.p0(i64 4, ptr %9) #13
  call void @llvm.lifetime.end.p0(i64 4, ptr %8) #13
  %105 = load i32, ptr %4, align 4
  ret i32 %105
}