; Function Attrs: nounwind sspstrong uwtable
define dso_local i32 @onig_scan_unsigned_number(ptr noundef captures(none) %0, ptr noundef %1, ptr noundef %2) local_unnamed_addr #5 {
  %4 = load ptr, ptr %0, align 8, !tbaa !67
  %.not37 = icmp ult ptr %4, %1
  br i1 %.not37, label %.lr.ph, label %._crit_edge

.lr.ph:                                           ; preds = %3
  %5 = getelementptr inbounds nuw i8, ptr %2, i64 16
  %6 = getelementptr inbounds nuw i8, ptr %2, i64 32
  %7 = getelementptr inbounds nuw i8, ptr %2, i64 20
  %8 = getelementptr inbounds nuw i8, ptr %2, i64 88
  br label %9

9:                                                ; preds = %.lr.ph, %38
  %.039 = phi ptr [ %4, %.lr.ph ], [ %28, %38 ]
  %.03238 = phi i32 [ 0, %.lr.ph ], [ %40, %38 ]
  %10 = load i32, ptr %5, align 8, !tbaa !68
  %11 = icmp eq i32 %10, 1
  br i1 %11, label %12, label %15

12:                                               ; preds = %9
  %13 = load i8, ptr %.039, align 1, !tbaa !13
  %14 = zext i8 %13 to i32
  br label %18

15:                                               ; preds = %9
  %16 = load ptr, ptr %6, align 8, !tbaa !69
  %17 = tail call i32 %16(ptr noundef %.039, ptr noundef nonnull %1, ptr noundef nonnull %2) #25
  %.pre = load i32, ptr %5, align 8, !tbaa !68
  br label %18

18:                                               ; preds = %15, %12
  %19 = phi i32 [ 1, %12 ], [ %.pre, %15 ]
  %20 = phi i32 [ %14, %12 ], [ %17, %15 ]
  %21 = load i32, ptr %7, align 4, !tbaa !45
  %22 = icmp eq i32 %19, %21
  br i1 %22, label %25, label %23

23:                                               ; preds = %18
  %24 = tail call i32 @onigenc_mbclen(ptr noundef %.039, ptr noundef nonnull %1, ptr noundef nonnull %2) #25
  br label %25

25:                                               ; preds = %18, %23
  %26 = phi i32 [ %24, %23 ], [ %19, %18 ]
  %27 = sext i32 %26 to i64
  %28 = getelementptr i8, ptr %.039, i64 %27
  %29 = load ptr, ptr %8, align 8, !tbaa !70
  %30 = tail call i32 %29(i32 noundef %20, i32 noundef 4, ptr noundef nonnull %2) #25
  %.not34 = icmp eq i32 %30, 0
  br i1 %.not34, label %._crit_edge, label %31

31:                                               ; preds = %25
  %32 = add i32 %20, -48
  %33 = zext i32 %32 to i64
  %34 = sub nsw i64 2147483647, %33
  %35 = udiv i64 %34, 10
  %36 = zext i32 %.03238 to i64
  %37 = icmp samesign ult i64 %35, %36
  br i1 %37, label %.loopexit, label %38

38:                                               ; preds = %31
  %39 = mul i32 %.03238, 10
  %40 = add i32 %32, %39
  %.not = icmp ult ptr %28, %1
  br i1 %.not, label %9, label %._crit_edge, !llvm.loop !71

._crit_edge:                                      ; preds = %38, %25, %3
  %.032.lcssa = phi i32 [ 0, %3 ], [ %.03238, %25 ], [ %40, %38 ]
  %.0.lcssa = phi ptr [ %4, %3 ], [ %.039, %25 ], [ %28, %38 ]
  store ptr %.0.lcssa, ptr %0, align 8, !tbaa !67
  br label %.loopexit

.loopexit:                                        ; preds = %31, %._crit_edge
  %.031 = phi i32 [ %.032.lcssa, %._crit_edge ], [ -1, %31 ]
  ret i32 %.031
}